; Function Attrs: mustprogress nofree nounwind willreturn memory(read, inaccessiblemem: none) uwtable
define noundef zeroext i1 @_ZNK8facebook5velox10OpaqueType10equivalentERKNS0_4TypeE(ptr noundef nonnull readonly align 8 dereferenceable(32) %this, ptr noundef nonnull readonly align 8 dereferenceable(17) %other) unnamed_addr #13 align 2 {
entry:
  %cmp = icmp eq ptr %other, %this
  br i1 %cmp, label %return, label %_ZNK8facebook5velox4Type13hasSameTypeIdERKS1_.exit

_ZNK8facebook5velox4Type13hasSameTypeIdERKS1_.exit: ; preds = %entry
  %vtable.i = load ptr, ptr %this, align 8
  %0 = getelementptr inbounds i8, ptr %vtable.i, i64 -8
  %1 = load ptr, ptr %0, align 8
  %vtable2.i = load ptr, ptr %other, align 8
  %2 = getelementptr inbounds i8, ptr %vtable2.i, i64 -8
  %3 = load ptr, ptr %2, align 8
  %__name.i = getelementptr inbounds i8, ptr %1, i64 8
  %4 = load ptr, ptr %__name.i, align 8
  %__name2.i = getelementptr inbounds i8, ptr %3, i64 8
  %5 = load ptr, ptr %__name2.i, align 8
  %cmp.i = icmp eq ptr %4, %5
  br i1 %cmp.i, label %return, label %if.end.i

if.end.i:                                         ; preds = %_ZNK8facebook5velox4Type13hasSameTypeIdERKS1_.exit
  %6 = load i8, ptr %4, align 1
  %cmp4.not.i = icmp eq i8 %6, 42
  br i1 %cmp4.not.i, label %return, label %land.rhs.i

land.rhs.i:                                       ; preds = %if.end.i
  %7 = load i8, ptr %5, align 1
  %cmp.i.i = icmp eq i8 %7, 42
  %cond.idx.i.i = zext i1 %cmp.i.i to i64
  %cond.i.i = getelementptr inbounds i8, ptr %5, i64 %cond.idx.i.i
  %call6.i = tail call i32 @strcmp(ptr noundef nonnull dereferenceable(1) %4, ptr noundef nonnull dereferenceable(1) %cond.i.i) #37
  %cmp7.i = icmp eq i32 %call6.i, 0
  br label %return

return:                                           ; preds = %land.rhs.i, %if.end.i, %_ZNK8facebook5velox4Type13hasSameTypeIdERKS1_.exit, %entry
  %retval.0 = phi i1 [ true, %entry ], [ true, %_ZNK8facebook5velox4Type13hasSameTypeIdERKS1_.exit ], [ false, %if.end.i ], [ %cmp7.i, %land.rhs.i ]
  ret i1 %retval.0
}